; Function Attrs: mustprogress nofree norecurse nosync nounwind willreturn memory(argmem: read) uwtable
define noundef range(i64 0, -9223372036854775807) i64 @_ZN11duckdb_zstd17ZSTD_getBlockSizeEPKNS_11ZSTD_CCtx_sE(ptr noundef readonly captures(none) %0) local_unnamed_addr #10 {
  %2 = getelementptr i8, ptr %0, i64 236
  %.val = load i32, ptr %2, align 4, !tbaa !62
  %3 = getelementptr i8, ptr %0, i64 432
  %.val1 = load i64, ptr %3, align 8, !tbaa !187
  %4 = zext nneg i32 %.val to i64
  %5 = shl nuw i64 1, %4
  %..i = tail call noundef range(i64 0, -9223372036854775807) i64 @llvm.umin.i64(i64 %.val1, i64 %5)
  ret i64 %..i
}